target datalayout = "e-m:e-p270:32:32-p271:32:32-p272:64:64-i64:64-i128:128-f80:128-n8:16:32:64-S128"
target triple = "x86_64-pc-linux-gnu"

%"class.cv::Point3_.7" = type { float, float, float }

@.str.41 = private unnamed_addr constant [6 x i8] c"(ddd)\00", align 1

; Function Attrs: mustprogress uwtable
define hidden noundef ptr @_Z13pyopencv_fromIN2cv7Point3_IfEEEP7_objectRKT_(ptr noundef nonnull align 4 dereferenceable(12) %0) #4 {
  %2 = alloca ptr, align 8
  store ptr %0, ptr %2, align 8
  %3 = load ptr, ptr %2, align 8
  %4 = getelementptr inbounds %"class.cv::Point3_.7", ptr %3, i32 0, i32 0
  %5 = load float, ptr %4, align 4
  %6 = fpext float %5 to double
  %7 = load ptr, ptr %2, align 8
  %8 = getelementptr inbounds %"class.cv::Point3_.7", ptr %7, i32 0, i32 1
  %9 = load float, ptr %8, align 4
  %10 = fpext float %9 to double
  %11 = load ptr, ptr %2, align 8
  %12 = getelementptr inbounds %"class.cv::Point3_.7", ptr %11, i32 0, i32 2
  %13 = load float, ptr %12, align 4
  %14 = fpext float %13 to double
  %15 = call ptr (ptr, ...) @Py_BuildValue(ptr noundef @.str.41, double noundef %6, double noundef %10, double noundef %14)
  ret ptr %15
}